; ModuleID = '52/1658.c'
source_filename = "52/1658.c"
target datalayout = "e-m:e-p270:32:32-p271:32:32-p272:64:64-i64:64-f80:128-n8:16:32:64-S128"
target triple = "x86_64-pc-linux-gnu"

@.str = private unnamed_addr constant [5 x i8] c"%d%d\00", align 1
@.str.1 = private unnamed_addr constant [3 x i8] c"%d\00", align 1
@.str.2 = private unnamed_addr constant [4 x i8] c"%d \00", align 1

; Function Attrs: noinline nounwind uwtable
define dso_local void @main() #0 {
  %1 = alloca i32, align 4
  %2 = alloca i32, align 4
  %3 = alloca i32, align 4
  %4 = alloca [100 x i32], align 16
  %5 = alloca [100 x i32*], align 16
  %6 = call i32 (i8*, ...) @__isoc99_scanf(i8* getelementptr inbounds ([5 x i8], [5 x i8]* @.str, i64 0, i64 0), i32* %3, i32* %2)
  store i32 0, i32* %1, align 4
  br label %7

7:                                                ; preds = %16, %0
  %8 = load i32, i32* %1, align 4
  %9 = load i32, i32* %3, align 4
  %10 = icmp slt i32 %8, %9
  br i1 %10, label %11, label %19

11:                                               ; preds = %7
  %12 = load i32, i32* %1, align 4
  %13 = sext i32 %12 to i64
  %14 = getelementptr inbounds [100 x i32], [100 x i32]* %4, i64 0, i64 %13
  %15 = call i32 (i8*, ...) @__isoc99_scanf(i8* getelementptr inbounds ([3 x i8], [3 x i8]* @.str.1, i64 0, i64 0), i32* %14)
  br label %16

16:                                               ; preds = %11
  %17 = load i32, i32* %1, align 4
  %18 = add nsw i32 %17, 1
  store i32 %18, i32* %1, align 4
  br label %7

19:                                               ; preds = %7
  store i32 0, i32* %1, align 4
  br label %20

20:                                               ; preds = %35, %19
  %21 = load i32, i32* %1, align 4
  %22 = load i32, i32* %2, align 4
  %23 = icmp slt i32 %21, %22
  br i1 %23, label %24, label %38

24:                                               ; preds = %20
  %25 = load i32, i32* %3, align 4
  %26 = load i32, i32* %2, align 4
  %27 = sub nsw i32 %25, %26
  %28 = load i32, i32* %1, align 4
  %29 = add nsw i32 %27, %28
  %30 = sext i32 %29 to i64
  %31 = getelementptr inbounds [100 x i32], [100 x i32]* %4, i64 0, i64 %30
  %32 = load i32, i32* %1, align 4
  %33 = sext i32 %32 to i64
  %34 = getelementptr inbounds [100 x i32*], [100 x i32*]* %5, i64 0, i64 %33
  store i32* %31, i32** %34, align 8
  br label %35

35:                                               ; preds = %24
  %36 = load i32, i32* %1, align 4
  %37 = add nsw i32 %36, 1
  store i32 %37, i32* %1, align 4
  br label %20

38:                                               ; preds = %20
  %39 = load i32, i32* %2, align 4
  store i32 %39, i32* %1, align 4
  br label %40

40:                                               ; preds = %53, %38
  %41 = load i32, i32* %1, align 4
  %42 = load i32, i32* %3, align 4
  %43 = icmp slt i32 %41, %42
  br i1 %43, label %44, label %56

44:                                               ; preds = %40
  %45 = load i32, i32* %1, align 4
  %46 = load i32, i32* %2, align 4
  %47 = sub nsw i32 %45, %46
  %48 = sext i32 %47 to i64
  %49 = getelementptr inbounds [100 x i32], [100 x i32]* %4, i64 0, i64 %48
  %50 = load i32, i32* %1, align 4
  %51 = sext i32 %50 to i64
  %52 = getelementptr inbounds [100 x i32*], [100 x i32*]* %5, i64 0, i64 %51
  store i32* %49, i32** %52, align 8
  br label %53

53:                                               ; preds = %44
  %54 = load i32, i32* %1, align 4
  %55 = add nsw i32 %54, 1
  store i32 %55, i32* %1, align 4
  br label %40

56:                                               ; preds = %40
  store i32 0, i32* %1, align 4
  br label %57

57:                                               ; preds = %69, %56
  %58 = load i32, i32* %1, align 4
  %59 = load i32, i32* %3, align 4
  %60 = sub nsw i32 %59, 1
  %61 = icmp slt i32 %58, %60
  br i1 %61, label %62, label %72

62:                                               ; preds = %57
  %63 = load i32, i32* %1, align 4
  %64 = sext i32 %63 to i64
  %65 = getelementptr inbounds [100 x i32*], [100 x i32*]* %5, i64 0, i64 %64
  %66 = load i32*, i32** %65, align 8
  %67 = load i32, i32* %66, align 4
  %68 = call i32 (i8*, ...) @printf(i8* getelementptr inbounds ([4 x i8], [4 x i8]* @.str.2, i64 0, i64 0), i32 %67)
  br label %69

69:                                               ; preds = %62
  %70 = load i32, i32* %1, align 4
  %71 = add nsw i32 %70, 1
  store i32 %71, i32* %1, align 4
  br label %57

72:                                               ; preds = %57
  %73 = load i32, i32* %3, align 4
  %74 = sub nsw i32 %73, 1
  %75 = sext i32 %74 to i64
  %76 = getelementptr inbounds [100 x i32*], [100 x i32*]* %5, i64 0, i64 %75
  %77 = load i32*, i32** %76, align 8
  %78 = load i32, i32* %77, align 4
  %79 = call i32 (i8*, ...) @printf(i8* getelementptr inbounds ([3 x i8], [3 x i8]* @.str.1, i64 0, i64 0), i32 %78)
  ret void
}

declare dso_local i32 @__isoc99_scanf(i8*, ...) #1

declare dso_local i32 @printf(i8*, ...) #1


!llvm.module.flags = !{!0}
!llvm.ident = !{!1}

!0 = !{i32 1, !"wchar_size", i32 4}
!1 = !{!"clang version 10.0.0-4ubuntu1 "}
